; Function Attrs: nounwind uwtable
define dso_local zeroext i1 @has_stored_generated_columns(ptr noundef readonly captures(none) %0, i32 noundef %1) local_unnamed_addr #0 {
  %3 = getelementptr inbounds nuw i8, ptr %0, i64 72
  %4 = load ptr, ptr %3, align 8
  %.not = icmp eq ptr %4, null
  br i1 %.not, label %8, label %5

5:                                                ; preds = %2
  %6 = zext i32 %1 to i64
  %7 = getelementptr inbounds nuw ptr, ptr %4, i64 %6
  br label %17

8:                                                ; preds = %2
  %9 = getelementptr inbounds nuw i8, ptr %0, i64 8
  %10 = load ptr, ptr %9, align 8
  %11 = getelementptr inbounds nuw i8, ptr %10, i64 64
  %12 = load ptr, ptr %11, align 8
  %13 = add i32 %1, -1
  %14 = getelementptr i8, ptr %12, i64 16
  %.val = load ptr, ptr %14, align 8
  %15 = sext i32 %13 to i64
  %16 = getelementptr inbounds %union.ListCell, ptr %.val, i64 %15
  br label %17

17:                                               ; preds = %8, %5
  %.in = phi ptr [ %7, %5 ], [ %16, %8 ]
  %18 = load ptr, ptr %.in, align 8
  %19 = getelementptr inbounds nuw i8, ptr %18, i64 28
  %20 = load i32, ptr %19, align 4
  %21 = tail call ptr @table_open(i32 noundef %20, i32 noundef 0) #10
  %22 = getelementptr inbounds nuw i8, ptr %21, i64 64
  %23 = load ptr, ptr %22, align 8
  %24 = getelementptr inbounds nuw i8, ptr %23, i64 16
  %25 = load ptr, ptr %24, align 8
  %.not11 = icmp eq ptr %25, null
  br i1 %.not11, label %30, label %26

26:                                               ; preds = %17
  %27 = getelementptr inbounds nuw i8, ptr %25, i64 29
  %28 = load i8, ptr %27, align 1, !range !4, !noundef !5
  %29 = trunc nuw i8 %28 to i1
  br label %30

30:                                               ; preds = %26, %17
  %31 = phi i1 [ false, %17 ], [ %29, %26 ]
  tail call void @table_close(ptr noundef nonnull %21, i32 noundef 0) #10
  ret i1 %31
}